target datalayout = "e-m:e-p270:32:32-p271:32:32-p272:64:64-i64:64-i128:128-f80:128-n8:16:32:64-S128"
target triple = "x86_64-pc-linux-gnu"

%struct.spgBulkDeleteState = type { ptr, ptr, ptr, ptr, %struct.SpGistState, ptr, i32, i32 }
%struct.SpGistState = type { ptr, %struct.spgConfigOut, %struct.SpGistTypeDesc, %struct.SpGistTypeDesc, %struct.SpGistTypeDesc, %struct.SpGistTypeDesc, ptr, ptr, i32, i8 }
%struct.spgConfigOut = type { i32, i32, i32, i8, i8 }
%struct.SpGistTypeDesc = type { i32, i16, i8, i8, i8 }

; Function Attrs: nounwind uwtable
define dso_local ptr @spgbulkdelete(ptr noundef %0, ptr noundef %1, ptr noundef %2, ptr noundef %3) #0 {
  %5 = alloca ptr, align 8
  %6 = alloca ptr, align 8
  %7 = alloca ptr, align 8
  %8 = alloca ptr, align 8
  %9 = alloca %struct.spgBulkDeleteState, align 8
  store ptr %0, ptr %5, align 8
  store ptr %1, ptr %6, align 8
  store ptr %2, ptr %7, align 8
  store ptr %3, ptr %8, align 8
  call void @llvm.lifetime.start.p0(i64 144, ptr %9) #7
  %10 = load ptr, ptr %6, align 8
  %11 = icmp eq ptr %10, null
  br i1 %11, label %12, label %14

12:                                               ; preds = %4
  %13 = call ptr @palloc0(i64 noundef 40)
  store ptr %13, ptr %6, align 8
  br label %14

14:                                               ; preds = %12, %4
  %15 = load ptr, ptr %5, align 8
  %16 = getelementptr inbounds nuw %struct.spgBulkDeleteState, ptr %9, i32 0, i32 0
  store ptr %15, ptr %16, align 8
  %17 = load ptr, ptr %6, align 8
  %18 = getelementptr inbounds nuw %struct.spgBulkDeleteState, ptr %9, i32 0, i32 1
  store ptr %17, ptr %18, align 8
  %19 = load ptr, ptr %7, align 8
  %20 = getelementptr inbounds nuw %struct.spgBulkDeleteState, ptr %9, i32 0, i32 2
  store ptr %19, ptr %20, align 8
  %21 = load ptr, ptr %8, align 8
  %22 = getelementptr inbounds nuw %struct.spgBulkDeleteState, ptr %9, i32 0, i32 3
  store ptr %21, ptr %22, align 8
  call void @spgvacuumscan(ptr noundef %9)
  %23 = load ptr, ptr %6, align 8
  call void @llvm.lifetime.end.p0(i64 144, ptr %9) #7
  ret ptr %23
}