; Function Attrs: nounwind uwtable
define dso_local ptr @spgbulkdelete(ptr noundef %0, ptr noundef %1, ptr noundef %2, ptr noundef %3) local_unnamed_addr #0 {
  %5 = alloca %struct.spgBulkDeleteState, align 8
  call void @llvm.lifetime.start.p0(i64 144, ptr nonnull %5) #8
  %6 = icmp eq ptr %1, null
  br i1 %6, label %7, label %9

7:                                                ; preds = %4
  %8 = tail call ptr @palloc0(i64 noundef 40) #8
  br label %9

9:                                                ; preds = %7, %4
  %.0 = phi ptr [ %8, %7 ], [ %1, %4 ]
  store ptr %0, ptr %5, align 8
  %10 = getelementptr inbounds nuw i8, ptr %5, i64 8
  store ptr %.0, ptr %10, align 8
  %11 = getelementptr inbounds nuw i8, ptr %5, i64 16
  store ptr %2, ptr %11, align 8
  %12 = getelementptr inbounds nuw i8, ptr %5, i64 24
  store ptr %3, ptr %12, align 8
  call fastcc void @spgvacuumscan(ptr noundef %5)
  call void @llvm.lifetime.end.p0(i64 144, ptr nonnull %5) #8
  ret ptr %.0
}